target datalayout = "e-m:e-p270:32:32-p271:32:32-p272:64:64-i64:64-i128:128-f80:128-n8:16:32:64-S128"
target triple = "x86_64-pc-linux-gnu"

%struct.Curl_llist_node = type { ptr, ptr, ptr, ptr }
%struct.easy_pollset = type { [5 x i32], i32, [5 x i8] }
%struct.curltime = type { i64, i32 }
%struct.bufq = type { ptr, ptr, ptr, ptr, i64, i64, i64, i32 }
%struct.ssl_primary_config = type { ptr, ptr, ptr, ptr, ptr, ptr, ptr, ptr, ptr, ptr, ptr, ptr, ptr, ptr, i8, i32, i8, i8 }
%struct.dynbuf = type { ptr, i64, i64, i64 }
%struct.Curl_llist = type { ptr, ptr, ptr, i64 }
%struct.ip_quadruple = type { [46 x i8], [46 x i8], i32, i32 }
%struct.connectdata = type { %struct.Curl_llist_node, ptr, ptr, i64, ptr, i64, ptr, ptr, %struct.hostname, ptr, ptr, %struct.hostname, %struct.proxy_info, %struct.proxy_info, %struct.ip_quadruple, %struct.ip_quadruple, ptr, ptr, ptr, ptr, ptr, %struct.curltime, %struct.curltime, %struct.curltime, [2 x i32], [2 x ptr], [2 x ptr], [2 x ptr], %struct.anon, %struct.easy_pollset, %struct.ssl_primary_config, %struct.ssl_primary_config, %struct.ConnectBits, ptr, ptr, %struct.curltime, i32, i32, %struct.Curl_llist, i32, i32, %struct.ntlmdata, %struct.ntlmdata, %union.anon.1, ptr, ptr, i16, i32, i32, i32, i32, i16, i16, i8, i8, i8, i8, i8, i8, i8 }
%struct.hostname = type { ptr, ptr, ptr, ptr }
%struct.proxy_info = type { %struct.hostname, i32, i8, ptr, ptr }
%struct.anon = type { [2 x %struct.curltime], i32 }
%struct.ConnectBits = type { i64 }
%struct.ntlmdata = type { i32, [8 x i8], i32, ptr }
%union.anon.1 = type { %struct.ftp_conn }
%struct.ftp_conn = type { %struct.pingpong, ptr, ptr, ptr, ptr, ptr, ptr, ptr, i8, i64, ptr, i64, i32, i32, i32, i32, i32, i16, i8, i8, i8, i8, i8 }
%struct.pingpong = type { i64, i8, ptr, i64, i64, %struct.curltime, i64, %struct.dynbuf, %struct.dynbuf, i64, i64, ptr, ptr }
%struct.websocket = type { ptr, %struct.ws_decoder, %struct.ws_encoder, %struct.bufq, %struct.bufq, %struct.curl_ws_frame, i64 }
%struct.ws_decoder = type { i32, i32, i64, i64, [10 x i8], i32, i32, i32 }
%struct.ws_encoder = type { i64, i64, i32, [4 x i8], i8, i8 }
%struct.curl_ws_frame = type { i32, i32, i64, i64, i64 }

@Curl_cfree = external global ptr, align 8

; Function Attrs: nounwind uwtable
define internal void @ws_free(ptr noundef %0) #0 {
  %2 = alloca ptr, align 8
  store ptr %0, ptr %2, align 8, !tbaa !117
  %3 = load ptr, ptr %2, align 8, !tbaa !117
  %4 = icmp ne ptr %3, null
  br i1 %4, label %5, label %27

5:                                                ; preds = %1
  %6 = load ptr, ptr %2, align 8, !tbaa !117
  %7 = getelementptr inbounds nuw %struct.connectdata, ptr %6, i32 0, i32 43
  %8 = load ptr, ptr %7, align 8, !tbaa !91
  %9 = icmp ne ptr %8, null
  br i1 %9, label %10, label %27

10:                                               ; preds = %5
  %11 = load ptr, ptr %2, align 8, !tbaa !117
  %12 = getelementptr inbounds nuw %struct.connectdata, ptr %11, i32 0, i32 43
  %13 = load ptr, ptr %12, align 8, !tbaa !91
  %14 = getelementptr inbounds nuw %struct.websocket, ptr %13, i32 0, i32 3
  call void @Curl_bufq_free(ptr noundef %14)
  %15 = load ptr, ptr %2, align 8, !tbaa !117
  %16 = getelementptr inbounds nuw %struct.connectdata, ptr %15, i32 0, i32 43
  %17 = load ptr, ptr %16, align 8, !tbaa !91
  %18 = getelementptr inbounds nuw %struct.websocket, ptr %17, i32 0, i32 4
  call void @Curl_bufq_free(ptr noundef %18)
  br label %19

19:                                               ; preds = %10
  %20 = load ptr, ptr @Curl_cfree, align 8, !tbaa !19
  %21 = load ptr, ptr %2, align 8, !tbaa !117
  %22 = getelementptr inbounds nuw %struct.connectdata, ptr %21, i32 0, i32 43
  %23 = load ptr, ptr %22, align 8, !tbaa !91
  call void %20(ptr noundef %23)
  %24 = load ptr, ptr %2, align 8, !tbaa !117
  %25 = getelementptr inbounds nuw %struct.connectdata, ptr %24, i32 0, i32 43
  store ptr null, ptr %25, align 8, !tbaa !91
  br label %26

26:                                               ; preds = %19
  br label %27

27:                                               ; preds = %26, %5, %1
  ret void
}

; Function Attrs: nounwind uwtable
define internal i32 @ws_disconnect(ptr noundef %0, ptr noundef %1, i1 noundef zeroext %2) #0 {
  %4 = alloca ptr, align 8
  %5 = alloca ptr, align 8
  %6 = alloca i8, align 1
  store ptr %0, ptr %4, align 8, !tbaa !3
  store ptr %1, ptr %5, align 8, !tbaa !117
  %7 = zext i1 %2 to i8
  store i8 %7, ptr %6, align 1, !tbaa !147
  %8 = load ptr, ptr %5, align 8, !tbaa !117
  call void @ws_free(ptr noundef %8)
  ret i32 0
}