; Function Attrs: nounwind uwtable
define internal noundef i32 @ws_disconnect(ptr readnone captures(none) %0, ptr noundef %1, i1 zeroext %2) #0 {
  %.not.i = icmp eq ptr %1, null
  br i1 %.not.i, label %ws_free.exit, label %4

4:                                                ; preds = %3
  %5 = getelementptr inbounds nuw i8, ptr %1, i64 1088
  %6 = load ptr, ptr %5, align 8, !tbaa !84
  %.not7.i = icmp eq ptr %6, null
  br i1 %.not7.i, label %ws_free.exit, label %7

7:                                                ; preds = %4
  %8 = getelementptr inbounds nuw i8, ptr %6, i64 88
  tail call void @Curl_bufq_free(ptr noundef nonnull %8) #7
  %9 = load ptr, ptr %5, align 8, !tbaa !84
  %10 = getelementptr inbounds nuw i8, ptr %9, i64 152
  tail call void @Curl_bufq_free(ptr noundef nonnull %10) #7
  %11 = load ptr, ptr @Curl_cfree, align 8, !tbaa !11
  %12 = load ptr, ptr %5, align 8, !tbaa !84
  tail call void %11(ptr noundef %12) #7
  store ptr null, ptr %5, align 8, !tbaa !84
  br label %ws_free.exit

ws_free.exit:                                     ; preds = %3, %4, %7
  ret i32 0
}